target datalayout = "e-m:e-p270:32:32-p271:32:32-p272:64:64-i64:64-i128:128-f80:128-n8:16:32:64-S128"
target triple = "x86_64-pc-linux-gnu"

@MaxBackends = external global i32, align 4
@max_prepared_xacts = external global i32, align 4
@FastPathLockGroupsPerBackend = external global i32, align 4

; Function Attrs: nounwind uwtable
define dso_local i64 @ProcGlobalShmemSize() #0 {
  %1 = alloca i64, align 8
  %2 = alloca i64, align 8
  %3 = alloca i64, align 8
  %4 = alloca i64, align 8
  call void @llvm.lifetime.start.p0(i64 8, ptr %1) #10
  store i64 0, ptr %1, align 8
  call void @llvm.lifetime.start.p0(i64 8, ptr %2) #10
  %5 = load i32, ptr @MaxBackends, align 4
  %6 = sext i32 %5 to i64
  %7 = load i32, ptr @max_prepared_xacts, align 4
  %8 = sext i32 %7 to i64
  %9 = call i64 @add_size(i64 noundef 6, i64 noundef %8)
  %10 = call i64 @add_size(i64 noundef %6, i64 noundef %9)
  store i64 %10, ptr %2, align 8
  call void @llvm.lifetime.start.p0(i64 8, ptr %3) #10
  call void @llvm.lifetime.start.p0(i64 8, ptr %4) #10
  %11 = load i64, ptr %1, align 8
  %12 = call i64 @add_size(i64 noundef %11, i64 noundef 128)
  store i64 %12, ptr %1, align 8
  %13 = load i64, ptr %1, align 8
  %14 = load i64, ptr %2, align 8
  %15 = call i64 @mul_size(i64 noundef %14, i64 noundef 832)
  %16 = call i64 @add_size(i64 noundef %13, i64 noundef %15)
  store i64 %16, ptr %1, align 8
  %17 = load i64, ptr %1, align 8
  %18 = call i64 @add_size(i64 noundef %17, i64 noundef 1)
  store i64 %18, ptr %1, align 8
  %19 = load i64, ptr %1, align 8
  %20 = load i64, ptr %2, align 8
  %21 = call i64 @mul_size(i64 noundef %20, i64 noundef 4)
  %22 = call i64 @add_size(i64 noundef %19, i64 noundef %21)
  store i64 %22, ptr %1, align 8
  %23 = load i64, ptr %1, align 8
  %24 = load i64, ptr %2, align 8
  %25 = call i64 @mul_size(i64 noundef %24, i64 noundef 2)
  %26 = call i64 @add_size(i64 noundef %23, i64 noundef %25)
  store i64 %26, ptr %1, align 8
  %27 = load i64, ptr %1, align 8
  %28 = load i64, ptr %2, align 8
  %29 = call i64 @mul_size(i64 noundef %28, i64 noundef 1)
  %30 = call i64 @add_size(i64 noundef %27, i64 noundef %29)
  store i64 %30, ptr %1, align 8
  %31 = load i32, ptr @FastPathLockGroupsPerBackend, align 4
  %32 = sext i32 %31 to i64
  %33 = mul i64 %32, 8
  %34 = add i64 %33, 7
  %35 = and i64 %34, -8
  store i64 %35, ptr %3, align 8
  %36 = load i32, ptr @FastPathLockGroupsPerBackend, align 4
  %37 = sext i32 %36 to i64
  %38 = mul i64 %37, 4
  %39 = mul i64 %38, 16
  %40 = add i64 %39, 7
  %41 = and i64 %40, -8
  store i64 %41, ptr %4, align 8
  %42 = load i64, ptr %1, align 8
  %43 = load i64, ptr %2, align 8
  %44 = load i64, ptr %3, align 8
  %45 = load i64, ptr %4, align 8
  %46 = add i64 %44, %45
  %47 = call i64 @mul_size(i64 noundef %43, i64 noundef %46)
  %48 = call i64 @add_size(i64 noundef %42, i64 noundef %47)
  store i64 %48, ptr %1, align 8
  %49 = load i64, ptr %1, align 8
  call void @llvm.lifetime.end.p0(i64 8, ptr %4) #10
  call void @llvm.lifetime.end.p0(i64 8, ptr %3) #10
  call void @llvm.lifetime.end.p0(i64 8, ptr %2) #10
  call void @llvm.lifetime.end.p0(i64 8, ptr %1) #10
  ret i64 %49
}