; Function Attrs: nounwind uwtable
define dso_local i64 @ProcGlobalShmemSize() local_unnamed_addr #0 {
  %1 = load i32, ptr @MaxBackends, align 4
  %2 = sext i32 %1 to i64
  %3 = load i32, ptr @max_prepared_xacts, align 4
  %4 = sext i32 %3 to i64
  %5 = tail call i64 @add_size(i64 noundef 6, i64 noundef %4) #14
  %6 = tail call i64 @add_size(i64 noundef %2, i64 noundef %5) #14
  %7 = tail call i64 @add_size(i64 noundef 0, i64 noundef 128) #14
  %8 = tail call i64 @mul_size(i64 noundef %6, i64 noundef 832) #14
  %9 = tail call i64 @add_size(i64 noundef %7, i64 noundef %8) #14
  %10 = tail call i64 @add_size(i64 noundef %9, i64 noundef 1) #14
  %11 = tail call i64 @mul_size(i64 noundef %6, i64 noundef 4) #14
  %12 = tail call i64 @add_size(i64 noundef %10, i64 noundef %11) #14
  %13 = tail call i64 @mul_size(i64 noundef %6, i64 noundef 2) #14
  %14 = tail call i64 @add_size(i64 noundef %12, i64 noundef %13) #14
  %15 = tail call i64 @mul_size(i64 noundef %6, i64 noundef 1) #14
  %16 = tail call i64 @add_size(i64 noundef %14, i64 noundef %15) #14
  %17 = load i32, ptr @FastPathLockGroupsPerBackend, align 4
  %18 = sext i32 %17 to i64
  %19 = mul nsw i64 %18, 72
  %20 = tail call i64 @mul_size(i64 noundef %6, i64 noundef %19) #14
  %21 = tail call i64 @add_size(i64 noundef %16, i64 noundef %20) #14
  ret i64 %21
}